; Function Attrs: mustprogress uwtable
define internal fastcc void @_ZN12_GLOBAL__N_120bv_bounds_simplifierC2ER11ast_managerRK10params_ref(ptr noundef nonnull align 8 dereferenceable(136) initializes((0, 8), (16, 32)) %0, ptr noundef nonnull align 8 dereferenceable(976) %1, ptr noundef nonnull align 8 dereferenceable(8) %2) unnamed_addr #3 align 2 personality ptr @__gxx_personality_v0 {
.noexc:
  store ptr getelementptr inbounds nuw inrange(-16, 72) (i8, ptr @_ZTVN19ctx_simplify_tactic10simplifierE, i64 16), ptr %0, align 8, !tbaa !3
  %3 = getelementptr inbounds nuw i8, ptr %0, i64 16
  store ptr getelementptr inbounds nuw inrange(-16, 16) (i8, ptr @_ZTVN2bv14bv_bounds_baseE, i64 16), ptr %3, align 8, !tbaa !3
  %4 = getelementptr inbounds nuw i8, ptr %0, i64 24
  store ptr %1, ptr %4, align 8, !tbaa !6
  %5 = getelementptr inbounds nuw i8, ptr %0, i64 32
  tail call void @_ZN7bv_utilC1ER11ast_manager(ptr noundef nonnull align 8 dereferenceable(24) %5, ptr noundef nonnull align 8 dereferenceable(976) %1)
  %6 = getelementptr inbounds nuw i8, ptr %0, i64 56
  tail call void @llvm.memset.p0.i64(ptr noundef nonnull align 8 dereferenceable(24) %6, i8 0, i64 24, i1 false)
  %7 = invoke noalias noundef ptr @_Z10alloc_vectIN7obj_mapI4exprN2bv8intervalEE13obj_map_entryEEPT_j(i32 noundef 8)
          to label %12 unwind label %8

8:                                                ; preds = %.noexc
  %9 = landingpad { ptr, i32 }
          cleanup
  %10 = getelementptr inbounds nuw i8, ptr %0, i64 72
  %11 = getelementptr inbounds nuw i8, ptr %0, i64 64
  tail call void @_ZN6vectorIP7obj_mapI4exprjELb0EjED2Ev(ptr noundef nonnull align 8 dereferenceable(8) %10) #26
  tail call void @_ZN6vectorIP7obj_mapI4exprbELb0EjED2Ev(ptr noundef nonnull align 8 dereferenceable(8) %11) #26
  tail call void @_ZN6vectorIN2bv10undo_boundELb1EjED2Ev(ptr noundef nonnull align 8 dereferenceable(8) %6) #26
  br label %.body

12:                                               ; preds = %.noexc
  %13 = getelementptr inbounds nuw i8, ptr %0, i64 80
  store ptr %7, ptr %13, align 8, !tbaa !10
  %14 = getelementptr inbounds nuw i8, ptr %0, i64 88
  store i32 8, ptr %14, align 8, !tbaa !14
  %15 = getelementptr inbounds nuw i8, ptr %0, i64 92
  store i32 0, ptr %15, align 4, !tbaa !15
  %16 = getelementptr inbounds nuw i8, ptr %0, i64 96
  store i32 0, ptr %16, align 8, !tbaa !16
  %17 = getelementptr inbounds nuw i8, ptr %0, i64 104
  store i8 0, ptr %17, align 8, !tbaa !17
  %18 = getelementptr inbounds nuw i8, ptr %0, i64 112
  tail call void @llvm.memset.p0.i64(ptr noundef nonnull align 8 dereferenceable(16) %18, i8 0, i64 16, i1 false)
  store ptr getelementptr inbounds nuw inrange(-16, 72) (i8, ptr @_ZTVN12_GLOBAL__N_120bv_bounds_simplifierE, i64 16), ptr %0, align 8, !tbaa !3
  store ptr getelementptr inbounds nuw inrange(-16, 16) (i8, ptr @_ZTVN12_GLOBAL__N_120bv_bounds_simplifierE, i64 104), ptr %3, align 8, !tbaa !3
  %19 = getelementptr inbounds nuw i8, ptr %0, i64 128
  invoke void @_ZN10params_refC1ERKS_(ptr noundef nonnull align 8 dereferenceable(8) %19, ptr noundef nonnull align 8 dereferenceable(8) %2)
          to label %20 unwind label %25

20:                                               ; preds = %12
  %21 = load ptr, ptr %0, align 8, !tbaa !3
  %22 = getelementptr inbounds nuw i8, ptr %21, i64 64
  %23 = load ptr, ptr %22, align 8
  invoke void %23(ptr noundef nonnull align 8 dereferenceable(136) %0, ptr noundef nonnull align 8 dereferenceable(8) %2)
          to label %24 unwind label %27

24:                                               ; preds = %20
  ret void

25:                                               ; preds = %12
  %26 = landingpad { ptr, i32 }
          cleanup
  br label %29

27:                                               ; preds = %20
  %28 = landingpad { ptr, i32 }
          cleanup
  tail call void @_ZN10params_refD1Ev(ptr noundef nonnull align 8 dereferenceable(8) %19) #26
  br label %29

29:                                               ; preds = %27, %25
  %.pn = phi { ptr, i32 } [ %28, %27 ], [ %26, %25 ]
  tail call void @_ZN2bv14bv_bounds_baseD2Ev(ptr noundef nonnull align 8 dereferenceable(112) %3) #26
  br label %.body

.body:                                            ; preds = %8, %29
  %.pn.pn = phi { ptr, i32 } [ %.pn, %29 ], [ %9, %8 ]
  resume { ptr, i32 } %.pn.pn
}